---------- ORIGINAL FORMAT ----------
CONNECTED(00000003)
---
Certificate chain
 0 s:C=US, ST=California, L=San Francisco, O=Twitter, Inc., CN=t.co
   i:C=US, O=DigiCert Inc, CN=DigiCert Global G2 TLS RSA SHA256 2020 CA1
   a:PKEY: rsaEncryption, 2048 (bit); sigalg: RSA-SHA256
   v:NotBefore: Jan  4 00:00:00 2024 GMT; NotAfter: Jan  2 23:59:59 2025 GMT
-----BEGIN CERTIFICATE-----
MIIG0DCCBbigAwIBAgIQCr8Ii3vUa9cLIWh+XpAnTDANBgkqhkiG9w0BAQsFADBZ
MQswCQYDVQQGEwJVUzEVMBMGA1UEChMMRGlnaUNlcnQgSW5jMTMwMQYDVQQDEypE
aWdpQ2VydCBHbG9iYWwgRzIgVExTIFJTQSBTSEEyNTYgMjAyMCBDQTEwHhcNMjQw
MTA0MDAwMDAwWhcNMjUwMTAyMjM1OTU5WjBhMQswCQYDVQQGEwJVUzETMBEGA1UE
CBMKQ2FsaWZvcm5pYTEWMBQGA1UEBxMNU2FuIEZyYW5jaXNjbzEWMBQGA1UEChMN
VHdpdHRlciwgSW5jLjENMAsGA1UEAxMEdC5jbzCCASIwDQYJKoZIhvcNAQEBBQAD
ggEPADCCAQoCggEBAKU+IhM15GCb8HzTDrp1+1jrMAgP03v8kUs5yauRANXnqGlt
4tQ9SzdMuzJ3ZF2AML4OOfrFo+TAn5ifLemHZaXCPx2DjjoBZRYZSWFcMBiVFsIF
9ZYAjobNUcrc8e8EIwBfQIJtznDYGm/sjbbgcCv6WavFdQGdVwS3v9nTtdOKo2BH
SfaYIB4avpvGLI2OgJ2Wm6J2loCKNYmRR/zrlzrcxs2dmDNBA55/BuguvQ9zqRrK
Q2sTp0oHbjGN/FolhBMou8kQsGRnrrMawR6D9JMwuUMbuQW4EHLlxjpgQdMVj5Fr
8XoP34lQ5hzx7Z9yAjHCYeRBrLuRLp51B2CrSIECAwEAAaOCA4owggOGMB8GA1Ud
IwQYMBaAFHSFgMBmx9833s+9KTeqAx2+7c0XMB0GA1UdDgQWBBT6pitAogNnzw6R
GtcPzAKoyso78jAZBgNVHREEEjAQggR0LmNvggh3d3cudC5jbzA+BgNVHSAENzA1
MDMGBmeBDAECAjApMCcGCCsGAQUFBwIBFhtodHRwOi8vd3d3LmRpZ2ljZXJ0LmNv
bS9DUFMwDgYDVR0PAQH/BAQDAgWgMB0GA1UdJQQWMBQGCCsGAQUFBwMBBggrBgEF
BQcDAjCBnwYDVR0fBIGXMIGUMEigRqBEhkJodHRwOi8vY3JsMy5kaWdpY2VydC5j
b20vRGlnaUNlcnRHbG9iYWxHMlRMU1JTQVNIQTI1NjIwMjBDQTEtMS5jcmwwSKBG
oESGQmh0dHA6Ly9jcmw0LmRpZ2ljZXJ0LmNvbS9EaWdpQ2VydEdsb2JhbEcyVExT
UlNBU0hBMjU2MjAyMENBMS0xLmNybDCBhwYIKwYBBQUHAQEEezB5MCQGCCsGAQUF
BzABhhhodHRwOi8vb2NzcC5kaWdpY2VydC5jb20wUQYIKwYBBQUHMAKGRWh0dHA6
Ly9jYWNlcnRzLmRpZ2ljZXJ0LmNvbS9EaWdpQ2VydEdsb2JhbEcyVExTUlNBU0hB
MjU2MjAyMENBMS0xLmNydDAMBgNVHRMBAf8EAjAAMIIBfgYKKwYBBAHWeQIEAgSC
AW4EggFqAWgAdwBOdaMnXJoQwzhbbNTfP1LrHfDgjhuNacCx+mSxYpo53wAAAYzV
zkIAAAAEAwBIMEYCIQCVYqFqqWa3qxTIr7gwxtojxEhdezlIm177a5LAqj6/vwIh
ALT9IecrHWsOKc63sW+8HhaFBEGCLYAKOyhFHI7Q4xYWAHUAPxdLT9ciR1iUHWUc
hL4NEu2QN38fhWrrwb8ohez4ZG4AAAGM1c5CSwAABAMARjBEAiB6Rgvt5kUWIi9Z
DuztJJ6S6i2/uLE7/jyPzc2cT9GVfQIgcrVCJ23myloQP6+wYoIiPKWsrMZ8mOcF
+wNLmA7L/nUAdgB9WR4S4XgqexxhZ3xe/fjQh1wUoE6VnrkDL9kOjC55uAAAAYzV
zkI5AAAEAwBHMEUCIQDwPhitsAqYsyy2tR4ZsCktn7+9cspfcJcqyY/n3/+CNwIg
csV2QIkgTf74629aO4TuFCugvJqNeB5ancPuO6fGjHUwDQYJKoZIhvcNAQELBQAD
ggEBAJeS89Ec41BLrp+Y1S//YP8jQ8xAPnwkrxlYHRF9/tJ82i/yF0/xanTTlR9y
7zfUQVecJJzMKaEcLICuDgdMWadZ9kWB3nWdIwsn7TC5p/ECT3Qfpwo5iwuk/4r4
j1pD7/WFekuzetMtjCqmLnrCeKKIbP2DdZ0fNXKyaceHwJMTeOoF+HSEM1d5r/VC
2Bo5jlt7/1pXxp3kXxYW31cSQ9VDL3LsU1X4ktBge4vNE+/DQZKGoFwNVl2RKlPp
rMKukfOKY5zdTCnOXnWZ5nW1UJ2jte120X/7ERlKQ8bWULlVD6JWLvNaPrFbutRW
+6m4qZAnqiuVGkZtyW0SwMLye2A=
-----END CERTIFICATE-----
 1 s:C=US, O=DigiCert Inc, CN=DigiCert Global G2 TLS RSA SHA256 2020 CA1
   i:C=US, O=DigiCert Inc, OU=www.digicert.com, CN=DigiCert Global Root G2
   a:PKEY: rsaEncryption, 2048 (bit); sigalg: RSA-SHA256
   v:NotBefore: Mar 30 00:00:00 2021 GMT; NotAfter: Mar 29 23:59:59 2031 GMT
-----BEGIN CERTIFICATE-----
MIIEyDCCA7CgAwIBAgIQDPW9BitWAvR6uFAsI8zwZjANBgkqhkiG9w0BAQsFADBh
MQswCQYDVQQGEwJVUzEVMBMGA1UEChMMRGlnaUNlcnQgSW5jMRkwFwYDVQQLExB3
d3cuZGlnaWNlcnQuY29tMSAwHgYDVQQDExdEaWdpQ2VydCBHbG9iYWwgUm9vdCBH
MjAeFw0yMTAzMzAwMDAwMDBaFw0zMTAzMjkyMzU5NTlaMFkxCzAJBgNVBAYTAlVT
MRUwEwYDVQQKEwxEaWdpQ2VydCBJbmMxMzAxBgNVBAMTKkRpZ2lDZXJ0IEdsb2Jh
bCBHMiBUTFMgUlNBIFNIQTI1NiAyMDIwIENBMTCCASIwDQYJKoZIhvcNAQEBBQAD
ggEPADCCAQoCggEBAMz3EGJPprtjb+2QUlbFbSd7ehJWivH0+dbn4Y+9lavyYEEV
cNsSAPonCrVXOFt9slGTcZUOakGUWzUb+nv6u8W+JDD+Vu/E832X4xT1FE3LpxDy
FuqrIvAxIhFhaZAmunjZlx/jfWardUSVc8is/+9dCopZQ+GssjoP80j812s3wWPc
3kbW20X+fSP9kOhRBx5Ro1/tSUZUfyyIxfQTnJcVPAPooTncaQwywa8WV0yUR0J8
osicfebUTVSvQpmowQTCd5zWSOTOEeAqgJnwQ3DPP3Zr0UxJqyRewg2C/Uaoq2yT
zGJSQnWS+Jr6Xl6ysGHlHx+5fwmY6D36g39HaaECAwEAAaOCAYIwggF+MBIGA1Ud
EwEB/wQIMAYBAf8CAQAwHQYDVR0OBBYEFHSFgMBmx9833s+9KTeqAx2+7c0XMB8G
A1UdIwQYMBaAFE4iVCAYlebjbuYP+vq5Eu0GF485MA4GA1UdDwEB/wQEAwIBhjAd
BgNVHSUEFjAUBggrBgEFBQcDAQYIKwYBBQUHAwIwdgYIKwYBBQUHAQEEajBoMCQG
CCsGAQUFBzABhhhodHRwOi8vb2NzcC5kaWdpY2VydC5jb20wQAYIKwYBBQUHMAKG
NGh0dHA6Ly9jYWNlcnRzLmRpZ2ljZXJ0LmNvbS9EaWdpQ2VydEdsb2JhbFJvb3RH
Mi5jcnQwQgYDVR0fBDswOTA3oDWgM4YxaHR0cDovL2NybDMuZGlnaWNlcnQuY29t
L0RpZ2lDZXJ0R2xvYmFsUm9vdEcyLmNybDA9BgNVHSAENjA0MAsGCWCGSAGG/WwC
ATAHBgVngQwBATAIBgZngQwBAgEwCAYGZ4EMAQICMAgGBmeBDAECAzANBgkqhkiG
9w0BAQsFAAOCAQEAkPFwyyiXaZd8dP3A+iZ7U6utzWX9upwGnIrXWkOH7U1MVl+t
wcW1BSAuWdH/SvWgKtiwla3JLko716f2b4gp/DA/JIS7w7d7kwcsr4drdjPtAFVS
slme5LnQ89/nD/7d+MS5EHKBCQRfz5eeLjJ1js+aWNJXMX43AYGyZm0pGrFmCW3R
bpD0ufovARTFXFZkAdl9h6g4U5+LXUZtXMYnhIHUfoyMo5tS58aI7Dd8KvvwVVo4
chDYABPPTHPbqjc1qCmBaZx2vN4Ye5DUys/vZwP9BFohFrH/6j/f3IL16/RZkiMN
JCqVJUzKoZHm1Lesh3Sz8W2jmdv51b2EQJ8HmA==
-----END CERTIFICATE-----
---
Server certificate
subject=C=US, ST=California, L=San Francisco, O=Twitter, Inc., CN=t.co
issuer=C=US, O=DigiCert Inc, CN=DigiCert Global G2 TLS RSA SHA256 2020 CA1
---
No client certificate CA names sent
Peer signing digest: SHA256
Peer signature type: RSA-PSS
Server Temp Key: X25519, 253 bits
---
SSL handshake has read 3471 bytes and written 535 bytes
Verification: OK
---
New, TLSv1.3, Cipher is TLS_AES_256_GCM_SHA384
Server public key is 2048 bit
This TLS version forbids renegotiation.
Compression: NONE
Expansion: NONE
No ALPN negotiated
Early data was not sent
Verify return code: 0 (ok)
---

---------- READABLE FORMAT ----------
Certificate:
    Data:
        Version: 3 (0x2)
        Serial Number:
            0a:bf:08:8b:7b:d4:6b:d7:0b:21:68:7e:5e:90:27:4c
        Signature Algorithm: sha256WithRSAEncryption
        Issuer: C=US, O=DigiCert Inc, CN=DigiCert Global G2 TLS RSA SHA256 2020 CA1
        Validity
            Not Before: Jan  4 00:00:00 2024 GMT
            Not After : Jan  2 23:59:59 2025 GMT
        Subject: C=US, ST=California, L=San Francisco, O=Twitter, Inc., CN=t.co
        Subject Public Key Info:
            Public Key Algorithm: rsaEncryption
                Public-Key: (2048 bit)
                Modulus:
                    00:a5:3e:22:13:35:e4:60:9b:f0:7c:d3:0e:ba:75:
                    fb:58:eb:30:08:0f:d3:7b:fc:91:4b:39:c9:ab:91:
                    00:d5:e7:a8:69:6d:e2:d4:3d:4b:37:4c:bb:32:77:
                    64:5d:80:30:be:0e:39:fa:c5:a3:e4:c0:9f:98:9f:
                    2d:e9:87:65:a5:c2:3f:1d:83:8e:3a:01:65:16:19:
                    49:61:5c:30:18:95:16:c2:05:f5:96:00:8e:86:cd:
                    51:ca:dc:f1:ef:04:23:00:5f:40:82:6d:ce:70:d8:
                    1a:6f:ec:8d:b6:e0:70:2b:fa:59:ab:c5:75:01:9d:
                    57:04:b7:bf:d9:d3:b5:d3:8a:a3:60:47:49:f6:98:
                    20:1e:1a:be:9b:c6:2c:8d:8e:80:9d:96:9b:a2:76:
                    96:80:8a:35:89:91:47:fc:eb:97:3a:dc:c6:cd:9d:
                    98:33:41:03:9e:7f:06:e8:2e:bd:0f:73:a9:1a:ca:
                    43:6b:13:a7:4a:07:6e:31:8d:fc:5a:25:84:13:28:
                    bb:c9:10:b0:64:67:ae:b3:1a:c1:1e:83:f4:93:30:
                    b9:43:1b:b9:05:b8:10:72:e5:c6:3a:60:41:d3:15:
                    8f:91:6b:f1:7a:0f:df:89:50:e6:1c:f1:ed:9f:72:
                    02:31:c2:61:e4:41:ac:bb:91:2e:9e:75:07:60:ab:
                    48:81
                Exponent: 65537 (0x10001)
        X509v3 extensions:
            X509v3 Authority Key Identifier: 
                74:85:80:C0:66:C7:DF:37:DE:CF:BD:29:37:AA:03:1D:BE:ED:CD:17
            X509v3 Subject Key Identifier: 
                FA:A6:2B:40:A2:03:67:CF:0E:91:1A:D7:0F:CC:02:A8:CA:CA:3B:F2
            X509v3 Subject Alternative Name: 
                DNS:t.co, DNS:www.t.co
            X509v3 Certificate Policies: 
                Policy: 2.23.140.1.2.2
                  CPS: http://www.digicert.com/CPS
            X509v3 Key Usage: critical
                Digital Signature, Key Encipherment
            X509v3 Extended Key Usage: 
                TLS Web Server Authentication, TLS Web Client Authentication
            X509v3 CRL Distribution Points: 
                Full Name:
                  URI:http://crl3.digicert.com/DigiCertGlobalG2TLSRSASHA2562020CA1-1.crl
                Full Name:
                  URI:http://crl4.digicert.com/DigiCertGlobalG2TLSRSASHA2562020CA1-1.crl
            Authority Information Access: 
                OCSP - URI:http://ocsp.digicert.com
                CA Issuers - URI:http://cacerts.digicert.com/DigiCertGlobalG2TLSRSASHA2562020CA1-1.crt
            X509v3 Basic Constraints: critical
                CA:FALSE
            CT Precertificate SCTs: 
                Signed Certificate Timestamp:
                    Version   : v1 (0x0)
                    Log ID    : 4E:75:A3:27:5C:9A:10:C3:38:5B:6C:D4:DF:3F:52:EB:
                                1D:F0:E0:8E:1B:8D:69:C0:B1:FA:64:B1:62:9A:39:DF
                    Timestamp : Jan  4 18:48:33.536 2024 GMT
                    Extensions: none
                    Signature : ecdsa-with-SHA256
                                30:46:02:21:00:95:62:A1:6A:A9:66:B7:AB:14:C8:AF:
                                B8:30:C6:DA:23:C4:48:5D:7B:39:48:9B:5E:FB:6B:92:
                                C0:AA:3E:BF:BF:02:21:00:B4:FD:21:E7:2B:1D:6B:0E:
                                29:CE:B7:B1:6F:BC:1E:16:85:04:41:82:2D:80:0A:3B:
                                28:45:1C:8E:D0:E3:16:16
                Signed Certificate Timestamp:
                    Version   : v1 (0x0)
                    Log ID    : 3F:17:4B:4F:D7:22:47:58:94:1D:65:1C:84:BE:0D:12:
                                ED:90:37:7F:1F:85:6A:EB:C1:BF:28:85:EC:F8:64:6E
                    Timestamp : Jan  4 18:48:33.611 2024 GMT
                    Extensions: none
                    Signature : ecdsa-with-SHA256
                                30:44:02:20:7A:46:0B:ED:E6:45:16:22:2F:59:0E:EC:
                                ED:24:9E:92:EA:2D:BF:B8:B1:3B:FE:3C:8F:CD:CD:9C:
                                4F:D1:95:7D:02:20:72:B5:42:27:6D:E6:CA:5A:10:3F:
                                AF:B0:62:82:22:3C:A5:AC:AC:C6:7C:98:E7:05:FB:03:
                                4B:98:0E:CB:FE:75
                Signed Certificate Timestamp:
                    Version   : v1 (0x0)
                    Log ID    : 7D:59:1E:12:E1:78:2A:7B:1C:61:67:7C:5E:FD:F8:D0:
                                87:5C:14:A0:4E:95:9E:B9:03:2F:D9:0E:8C:2E:79:B8
                    Timestamp : Jan  4 18:48:33.593 2024 GMT
                    Extensions: none
                    Signature : ecdsa-with-SHA256
                                30:45:02:21:00:F0:3E:18:AD:B0:0A:98:B3:2C:B6:B5:
                                1E:19:B0:29:2D:9F:BF:BD:72:CA:5F:70:97:2A:C9:8F:
                                E7:DF:FF:82:37:02:20:72:C5:76:40:89:20:4D:FE:F8:
                                EB:6F:5A:3B:84:EE:14:2B:A0:BC:9A:8D:78:1E:5A:9D:
                                C3:EE:3B:A7:C6:8C:75
    Signature Algorithm: sha256WithRSAEncryption
    Signature Value:
        97:92:f3:d1:1c:e3:50:4b:ae:9f:98:d5:2f:ff:60:ff:23:43:
        cc:40:3e:7c:24:af:19:58:1d:11:7d:fe:d2:7c:da:2f:f2:17:
        4f:f1:6a:74:d3:95:1f:72:ef:37:d4:41:57:9c:24:9c:cc:29:
        a1:1c:2c:80:ae:0e:07:4c:59:a7:59:f6:45:81:de:75:9d:23:
        0b:27:ed:30:b9:a7:f1:02:4f:74:1f:a7:0a:39:8b:0b:a4:ff:
        8a:f8:8f:5a:43:ef:f5:85:7a:4b:b3:7a:d3:2d:8c:2a:a6:2e:
        7a:c2:78:a2:88:6c:fd:83:75:9d:1f:35:72:b2:69:c7:87:c0:
        93:13:78:ea:05:f8:74:84:33:57:79:af:f5:42:d8:1a:39:8e:
        5b:7b:ff:5a:57:c6:9d:e4:5f:16:16:df:57:12:43:d5:43:2f:
        72:ec:53:55:f8:92:d0:60:7b:8b:cd:13:ef:c3:41:92:86:a0:
        5c:0d:56:5d:91:2a:53:e9:ac:c2:ae:91:f3:8a:63:9c:dd:4c:
        29:ce:5e:75:99:e6:75:b5:50:9d:a3:b5:ed:76:d1:7f:fb:11:
        19:4a:43:c6:d6:50:b9:55:0f:a2:56:2e:f3:5a:3e:b1:5b:ba:
        d4:56:fb:a9:b8:a9:90:27:aa:2b:95:1a:46:6d:c9:6d:12:c0:
        c2:f2:7b:60
