---------- ORIGINAL FORMAT ----------
CONNECTED(00000003)
---
Certificate chain
 0 s:C=US, ST=California, L=San Francisco, O=Twitter, Inc., CN=api.twitter.com
   i:C=US, O=DigiCert Inc, CN=DigiCert Global G2 TLS RSA SHA256 2020 CA1
   a:PKEY: rsaEncryption, 2048 (bit); sigalg: RSA-SHA256
   v:NotBefore: Oct  7 00:00:00 2024 GMT; NotAfter: Oct  6 23:59:59 2025 GMT
-----BEGIN CERTIFICATE-----
MIIG5jCCBc6gAwIBAgIQClNLzUatzj9IZijsBDO+WzANBgkqhkiG9w0BAQsFADBZ
MQswCQYDVQQGEwJVUzEVMBMGA1UEChMMRGlnaUNlcnQgSW5jMTMwMQYDVQQDEypE
aWdpQ2VydCBHbG9iYWwgRzIgVExTIFJTQSBTSEEyNTYgMjAyMCBDQTEwHhcNMjQx
MDA3MDAwMDAwWhcNMjUxMDA2MjM1OTU5WjBsMQswCQYDVQQGEwJVUzETMBEGA1UE
CBMKQ2FsaWZvcm5pYTEWMBQGA1UEBxMNU2FuIEZyYW5jaXNjbzEWMBQGA1UEChMN
VHdpdHRlciwgSW5jLjEYMBYGA1UEAxMPYXBpLnR3aXR0ZXIuY29tMIIBIjANBgkq
hkiG9w0BAQEFAAOCAQ8AMIIBCgKCAQEA0bV44zFQAflInpr97dCp22g8UvhjGXh2
4d10+5dXOpjFVVHUYu6FZIuKXrfuq0gnl7s/xuQYpGr/MT8B6kw4pdRJhKCygNZ7
zg8NpY+bbBR8b1lcGQ7RIjRBzcNN6vlvxd66bscHfHibxW8JxKXYdjewKwN6i/2K
B/lzrqgvmRQ+0f7RQ+Y1Kbftf82lctDXOi8uDcfn7K39CIr0g6l+pQy9W3fXku8S
z4VC/rmYbd7tItdfXbbdTlKi7R02aAK/wfgeCusG5+IQWAbjuz1iz86F3KiSEVto
ULZC4/kB2NC/jJX8aX6JhjHRYScxaj8FD4YTVMYQV2JtoNP86lf0fwIDAQABo4ID
lTCCA5EwHwYDVR0jBBgwFoAUdIWAwGbH3zfez70pN6oDHb7tzRcwHQYDVR0OBBYE
FBVfILFGU3H/0lL5+nLPQMzK9K9sMCUGA1UdEQQeMByCD2FwaS50d2l0dGVyLmNv
bYIJYXBpLnguY29tMD4GA1UdIAQ3MDUwMwYGZ4EMAQICMCkwJwYIKwYBBQUHAgEW
G2h0dHA6Ly93d3cuZGlnaWNlcnQuY29tL0NQUzAOBgNVHQ8BAf8EBAMCBaAwHQYD
VR0lBBYwFAYIKwYBBQUHAwEGCCsGAQUFBwMCMIGfBgNVHR8EgZcwgZQwSKBGoESG
Qmh0dHA6Ly9jcmwzLmRpZ2ljZXJ0LmNvbS9EaWdpQ2VydEdsb2JhbEcyVExTUlNB
U0hBMjU2MjAyMENBMS0xLmNybDBIoEagRIZCaHR0cDovL2NybDQuZGlnaWNlcnQu
Y29tL0RpZ2lDZXJ0R2xvYmFsRzJUTFNSU0FTSEEyNTYyMDIwQ0ExLTEuY3JsMIGH
BggrBgEFBQcBAQR7MHkwJAYIKwYBBQUHMAGGGGh0dHA6Ly9vY3NwLmRpZ2ljZXJ0
LmNvbTBRBggrBgEFBQcwAoZFaHR0cDovL2NhY2VydHMuZGlnaWNlcnQuY29tL0Rp
Z2lDZXJ0R2xvYmFsRzJUTFNSU0FTSEEyNTYyMDIwQ0ExLTEuY3J0MAwGA1UdEwEB
/wQCMAAwggF9BgorBgEEAdZ5AgQCBIIBbQSCAWkBZwB1ABLxTjS9U3JMhAYZw48/
ehP457Vih4icbTAFhOvlhiY6AAABkmfxY3wAAAQDAEYwRAIgIUMygttSAYi1AS0t
g/Qs8iyHqq8Sg9xvuWXU4DDQfQgCIF4rFZV5cHbuktPziyVUkjGDQQTc8bv8yFJh
dO8IQFkjAHcAzPsPaoVxCWX+lZtTzumyfCLphVwNl422qX5UwP5MDbAAAAGSZ/Fj
XQAABAMASDBGAiEAzCkY4/HCMUtMwm3xodOgPXz0i7ET1dwoZsGDB2cTNlECIQC5
Y5YRraNuf/7y8689lfG94QvSjN2ry9CKU66eEWebQAB1AN3cyjSV1+EWBeeVMvrH
n/g9HFDf2wA6FBJ2Ciysu8gqAAABkmfxZmwAAAQDAEYwRAIgdnpsFl7bJSWn98Mz
NMRGGoRG9Ej0N0BDwnV17Yod2/QCIFDBAzGsKbmaKJOrzMxX9QoMS0P3KwHfBXfV
GR+kAffbMA0GCSqGSIb3DQEBCwUAA4IBAQCCeYdleWsf4wFnKe8gbFtr/Ib+B3U1
7auaWliiI+iTuTB6PUsf7n2ixU4csQG6K1dAYDhoWxMJDx4rQTIUq0cScDAw2Vx+
clrlXTdtqvZ2RjJgC+9lrUy4DQKUikQzqdlBd1CmjZj3wDvuzoSaamOKSRyROjn1
B+eW4nT3fWbf6/Sj3RdhMl6xN+jO+nKbvMUINY5rEBxei35Eb5Eusko1xz8uWFsO
kxvvKPvVLtBkLaUNU+zm2MwncNIkoZQWvIGZbCSDJuCmEh6+3fYSskFfsZH0lw72
mJMO+uu4/dE8CbgJigSa42ecb3YsI7YI8SDGCUXrGtbX6xSG4pQkczej
-----END CERTIFICATE-----
 1 s:C=US, O=DigiCert Inc, CN=DigiCert Global G2 TLS RSA SHA256 2020 CA1
   i:C=US, O=DigiCert Inc, OU=www.digicert.com, CN=DigiCert Global Root G2
   a:PKEY: rsaEncryption, 2048 (bit); sigalg: RSA-SHA256
   v:NotBefore: Mar 30 00:00:00 2021 GMT; NotAfter: Mar 29 23:59:59 2031 GMT
-----BEGIN CERTIFICATE-----
MIIEyDCCA7CgAwIBAgIQDPW9BitWAvR6uFAsI8zwZjANBgkqhkiG9w0BAQsFADBh
MQswCQYDVQQGEwJVUzEVMBMGA1UEChMMRGlnaUNlcnQgSW5jMRkwFwYDVQQLExB3
d3cuZGlnaWNlcnQuY29tMSAwHgYDVQQDExdEaWdpQ2VydCBHbG9iYWwgUm9vdCBH
MjAeFw0yMTAzMzAwMDAwMDBaFw0zMTAzMjkyMzU5NTlaMFkxCzAJBgNVBAYTAlVT
MRUwEwYDVQQKEwxEaWdpQ2VydCBJbmMxMzAxBgNVBAMTKkRpZ2lDZXJ0IEdsb2Jh
bCBHMiBUTFMgUlNBIFNIQTI1NiAyMDIwIENBMTCCASIwDQYJKoZIhvcNAQEBBQAD
ggEPADCCAQoCggEBAMz3EGJPprtjb+2QUlbFbSd7ehJWivH0+dbn4Y+9lavyYEEV
cNsSAPonCrVXOFt9slGTcZUOakGUWzUb+nv6u8W+JDD+Vu/E832X4xT1FE3LpxDy
FuqrIvAxIhFhaZAmunjZlx/jfWardUSVc8is/+9dCopZQ+GssjoP80j812s3wWPc
3kbW20X+fSP9kOhRBx5Ro1/tSUZUfyyIxfQTnJcVPAPooTncaQwywa8WV0yUR0J8
osicfebUTVSvQpmowQTCd5zWSOTOEeAqgJnwQ3DPP3Zr0UxJqyRewg2C/Uaoq2yT
zGJSQnWS+Jr6Xl6ysGHlHx+5fwmY6D36g39HaaECAwEAAaOCAYIwggF+MBIGA1Ud
EwEB/wQIMAYBAf8CAQAwHQYDVR0OBBYEFHSFgMBmx9833s+9KTeqAx2+7c0XMB8G
A1UdIwQYMBaAFE4iVCAYlebjbuYP+vq5Eu0GF485MA4GA1UdDwEB/wQEAwIBhjAd
BgNVHSUEFjAUBggrBgEFBQcDAQYIKwYBBQUHAwIwdgYIKwYBBQUHAQEEajBoMCQG
CCsGAQUFBzABhhhodHRwOi8vb2NzcC5kaWdpY2VydC5jb20wQAYIKwYBBQUHMAKG
NGh0dHA6Ly9jYWNlcnRzLmRpZ2ljZXJ0LmNvbS9EaWdpQ2VydEdsb2JhbFJvb3RH
Mi5jcnQwQgYDVR0fBDswOTA3oDWgM4YxaHR0cDovL2NybDMuZGlnaWNlcnQuY29t
L0RpZ2lDZXJ0R2xvYmFsUm9vdEcyLmNybDA9BgNVHSAENjA0MAsGCWCGSAGG/WwC
ATAHBgVngQwBATAIBgZngQwBAgEwCAYGZ4EMAQICMAgGBmeBDAECAzANBgkqhkiG
9w0BAQsFAAOCAQEAkPFwyyiXaZd8dP3A+iZ7U6utzWX9upwGnIrXWkOH7U1MVl+t
wcW1BSAuWdH/SvWgKtiwla3JLko716f2b4gp/DA/JIS7w7d7kwcsr4drdjPtAFVS
slme5LnQ89/nD/7d+MS5EHKBCQRfz5eeLjJ1js+aWNJXMX43AYGyZm0pGrFmCW3R
bpD0ufovARTFXFZkAdl9h6g4U5+LXUZtXMYnhIHUfoyMo5tS58aI7Dd8KvvwVVo4
chDYABPPTHPbqjc1qCmBaZx2vN4Ye5DUys/vZwP9BFohFrH/6j/f3IL16/RZkiMN
JCqVJUzKoZHm1Lesh3Sz8W2jmdv51b2EQJ8HmA==
-----END CERTIFICATE-----
---
Server certificate
subject=C=US, ST=California, L=San Francisco, O=Twitter, Inc., CN=api.twitter.com
issuer=C=US, O=DigiCert Inc, CN=DigiCert Global G2 TLS RSA SHA256 2020 CA1
---
No client certificate CA names sent
Peer signing digest: SHA256
Peer signature type: RSA-PSS
Server Temp Key: X25519, 253 bits
---
SSL handshake has read 3493 bytes and written 542 bytes
Verification: OK
---
New, TLSv1.3, Cipher is TLS_AES_256_GCM_SHA384
Server public key is 2048 bit
This TLS version forbids renegotiation.
Compression: NONE
Expansion: NONE
No ALPN negotiated
Early data was not sent
Verify return code: 0 (ok)
---

---------- READABLE FORMAT ----------
Certificate:
    Data:
        Version: 3 (0x2)
        Serial Number:
            0a:53:4b:cd:46:ad:ce:3f:48:66:28:ec:04:33:be:5b
        Signature Algorithm: sha256WithRSAEncryption
        Issuer: C=US, O=DigiCert Inc, CN=DigiCert Global G2 TLS RSA SHA256 2020 CA1
        Validity
            Not Before: Oct  7 00:00:00 2024 GMT
            Not After : Oct  6 23:59:59 2025 GMT
        Subject: C=US, ST=California, L=San Francisco, O=Twitter, Inc., CN=api.twitter.com
        Subject Public Key Info:
            Public Key Algorithm: rsaEncryption
                Public-Key: (2048 bit)
                Modulus:
                    00:d1:b5:78:e3:31:50:01:f9:48:9e:9a:fd:ed:d0:
                    a9:db:68:3c:52:f8:63:19:78:76:e1:dd:74:fb:97:
                    57:3a:98:c5:55:51:d4:62:ee:85:64:8b:8a:5e:b7:
                    ee:ab:48:27:97:bb:3f:c6:e4:18:a4:6a:ff:31:3f:
                    01:ea:4c:38:a5:d4:49:84:a0:b2:80:d6:7b:ce:0f:
                    0d:a5:8f:9b:6c:14:7c:6f:59:5c:19:0e:d1:22:34:
                    41:cd:c3:4d:ea:f9:6f:c5:de:ba:6e:c7:07:7c:78:
                    9b:c5:6f:09:c4:a5:d8:76:37:b0:2b:03:7a:8b:fd:
                    8a:07:f9:73:ae:a8:2f:99:14:3e:d1:fe:d1:43:e6:
                    35:29:b7:ed:7f:cd:a5:72:d0:d7:3a:2f:2e:0d:c7:
                    e7:ec:ad:fd:08:8a:f4:83:a9:7e:a5:0c:bd:5b:77:
                    d7:92:ef:12:cf:85:42:fe:b9:98:6d:de:ed:22:d7:
                    5f:5d:b6:dd:4e:52:a2:ed:1d:36:68:02:bf:c1:f8:
                    1e:0a:eb:06:e7:e2:10:58:06:e3:bb:3d:62:cf:ce:
                    85:dc:a8:92:11:5b:68:50:b6:42:e3:f9:01:d8:d0:
                    bf:8c:95:fc:69:7e:89:86:31:d1:61:27:31:6a:3f:
                    05:0f:86:13:54:c6:10:57:62:6d:a0:d3:fc:ea:57:
                    f4:7f
                Exponent: 65537 (0x10001)
        X509v3 extensions:
            X509v3 Authority Key Identifier: 
                74:85:80:C0:66:C7:DF:37:DE:CF:BD:29:37:AA:03:1D:BE:ED:CD:17
            X509v3 Subject Key Identifier: 
                15:5F:20:B1:46:53:71:FF:D2:52:F9:FA:72:CF:40:CC:CA:F4:AF:6C
            X509v3 Subject Alternative Name: 
                DNS:api.twitter.com, DNS:api.x.com
            X509v3 Certificate Policies: 
                Policy: 2.23.140.1.2.2
                  CPS: http://www.digicert.com/CPS
            X509v3 Key Usage: critical
                Digital Signature, Key Encipherment
            X509v3 Extended Key Usage: 
                TLS Web Server Authentication, TLS Web Client Authentication
            X509v3 CRL Distribution Points: 
                Full Name:
                  URI:http://crl3.digicert.com/DigiCertGlobalG2TLSRSASHA2562020CA1-1.crl
                Full Name:
                  URI:http://crl4.digicert.com/DigiCertGlobalG2TLSRSASHA2562020CA1-1.crl
            Authority Information Access: 
                OCSP - URI:http://ocsp.digicert.com
                CA Issuers - URI:http://cacerts.digicert.com/DigiCertGlobalG2TLSRSASHA2562020CA1-1.crt
            X509v3 Basic Constraints: critical
                CA:FALSE
            CT Precertificate SCTs: 
                Signed Certificate Timestamp:
                    Version   : v1 (0x0)
                    Log ID    : 12:F1:4E:34:BD:53:72:4C:84:06:19:C3:8F:3F:7A:13:
                                F8:E7:B5:62:87:88:9C:6D:30:05:84:EB:E5:86:26:3A
                    Timestamp : Oct  7 17:05:25.884 2024 GMT
                    Extensions: none
                    Signature : ecdsa-with-SHA256
                                30:44:02:20:21:43:32:82:DB:52:01:88:B5:01:2D:2D:
                                83:F4:2C:F2:2C:87:AA:AF:12:83:DC:6F:B9:65:D4:E0:
                                30:D0:7D:08:02:20:5E:2B:15:95:79:70:76:EE:92:D3:
                                F3:8B:25:54:92:31:83:41:04:DC:F1:BB:FC:C8:52:61:
                                74:EF:08:40:59:23
                Signed Certificate Timestamp:
                    Version   : v1 (0x0)
                    Log ID    : CC:FB:0F:6A:85:71:09:65:FE:95:9B:53:CE:E9:B2:7C:
                                22:E9:85:5C:0D:97:8D:B6:A9:7E:54:C0:FE:4C:0D:B0
                    Timestamp : Oct  7 17:05:25.853 2024 GMT
                    Extensions: none
                    Signature : ecdsa-with-SHA256
                                30:46:02:21:00:CC:29:18:E3:F1:C2:31:4B:4C:C2:6D:
                                F1:A1:D3:A0:3D:7C:F4:8B:B1:13:D5:DC:28:66:C1:83:
                                07:67:13:36:51:02:21:00:B9:63:96:11:AD:A3:6E:7F:
                                FE:F2:F3:AF:3D:95:F1:BD:E1:0B:D2:8C:DD:AB:CB:D0:
                                8A:53:AE:9E:11:67:9B:40
                Signed Certificate Timestamp:
                    Version   : v1 (0x0)
                    Log ID    : DD:DC:CA:34:95:D7:E1:16:05:E7:95:32:FA:C7:9F:F8:
                                3D:1C:50:DF:DB:00:3A:14:12:76:0A:2C:AC:BB:C8:2A
                    Timestamp : Oct  7 17:05:26.636 2024 GMT
                    Extensions: none
                    Signature : ecdsa-with-SHA256
                                30:44:02:20:76:7A:6C:16:5E:DB:25:25:A7:F7:C3:33:
                                34:C4:46:1A:84:46:F4:48:F4:37:40:43:C2:75:75:ED:
                                8A:1D:DB:F4:02:20:50:C1:03:31:AC:29:B9:9A:28:93:
                                AB:CC:CC:57:F5:0A:0C:4B:43:F7:2B:01:DF:05:77:D5:
                                19:1F:A4:01:F7:DB
    Signature Algorithm: sha256WithRSAEncryption
    Signature Value:
        82:79:87:65:79:6b:1f:e3:01:67:29:ef:20:6c:5b:6b:fc:86:
        fe:07:75:35:ed:ab:9a:5a:58:a2:23:e8:93:b9:30:7a:3d:4b:
        1f:ee:7d:a2:c5:4e:1c:b1:01:ba:2b:57:40:60:38:68:5b:13:
        09:0f:1e:2b:41:32:14:ab:47:12:70:30:30:d9:5c:7e:72:5a:
        e5:5d:37:6d:aa:f6:76:46:32:60:0b:ef:65:ad:4c:b8:0d:02:
        94:8a:44:33:a9:d9:41:77:50:a6:8d:98:f7:c0:3b:ee:ce:84:
        9a:6a:63:8a:49:1c:91:3a:39:f5:07:e7:96:e2:74:f7:7d:66:
        df:eb:f4:a3:dd:17:61:32:5e:b1:37:e8:ce:fa:72:9b:bc:c5:
        08:35:8e:6b:10:1c:5e:8b:7e:44:6f:91:2e:b2:4a:35:c7:3f:
        2e:58:5b:0e:93:1b:ef:28:fb:d5:2e:d0:64:2d:a5:0d:53:ec:
        e6:d8:cc:27:70:d2:24:a1:94:16:bc:81:99:6c:24:83:26:e0:
        a6:12:1e:be:dd:f6:12:b2:41:5f:b1:91:f4:97:0e:f6:98:93:
        0e:fa:eb:b8:fd:d1:3c:09:b8:09:8a:04:9a:e3:67:9c:6f:76:
        2c:23:b6:08:f1:20:c6:09:45:eb:1a:d6:d7:eb:14:86:e2:94:
        24:73:37:a3
