---------- ORIGINAL FORMAT ----------
CONNECTED(00000003)
---
Certificate chain
 0 s:C=US, ST=California, L=Brea, O=New Dream Network LLC dba Dreamhost, OU=System Engineering, CN=sni.dreamhost.com, emailAddress=ssl@dreamhost.com
   i:C=US, ST=California, L=Brea, O=New Dream Network LLC dba Dreamhost, OU=System Engineering, CN=sni.dreamhost.com, emailAddress=ssl@dreamhost.com
   a:PKEY: rsaEncryption, 4096 (bit); sigalg: RSA-SHA256
   v:NotBefore: Apr  3 19:15:26 2023 GMT; NotAfter: Mar 31 19:15:26 2033 GMT
-----BEGIN CERTIFICATE-----
MIIGSDCCBDCgAwIBAgIFC63A/+4wDQYJKoZIhvcNAQELBQAwgboxCzAJBgNVBAYT
AlVTMRMwEQYDVQQIDApDYWxpZm9ybmlhMQ0wCwYDVQQHDARCcmVhMSwwKgYDVQQK
DCNOZXcgRHJlYW0gTmV0d29yayBMTEMgZGJhIERyZWFtaG9zdDEbMBkGA1UECwwS
U3lzdGVtIEVuZ2luZWVyaW5nMRowGAYDVQQDDBFzbmkuZHJlYW1ob3N0LmNvbTEg
MB4GCSqGSIb3DQEJARYRc3NsQGRyZWFtaG9zdC5jb20wHhcNMjMwNDAzMTkxNTI2
WhcNMzMwMzMxMTkxNTI2WjCBujELMAkGA1UEBhMCVVMxEzARBgNVBAgMCkNhbGlm
b3JuaWExDTALBgNVBAcMBEJyZWExLDAqBgNVBAoMI05ldyBEcmVhbSBOZXR3b3Jr
IExMQyBkYmEgRHJlYW1ob3N0MRswGQYDVQQLDBJTeXN0ZW0gRW5naW5lZXJpbmcx
GjAYBgNVBAMMEXNuaS5kcmVhbWhvc3QuY29tMSAwHgYJKoZIhvcNAQkBFhFzc2xA
ZHJlYW1ob3N0LmNvbTCCAiIwDQYJKoZIhvcNAQEBBQADggIPADCCAgoCggIBALsq
LiEy9YxaQZnRe1+1u1TABVJFlhSkZX5n9+PxgcJVQMNwHal6hN9FUvC47Tn/ExmL
W/DsrGkq2wgeE+VJntkmjob1KOpns+JwJwHzmRvVZX4WRRzS2qdKDFy/BKQ1ijt/
ABVRdiEjV7e9fGWyPyZ88VzWtXBc7B7Ud9sF7Hhubi4/U4oU5HrR0D2Ko8+XNPBU
pE4jDK+RfzQDXKKjTH4vT15+e6Zn1Q5PsgaHX+PawdPbb6npwZtsMNzgfTmvAUYO
FjnnHSGlAushLlGDXMtSwbd8ghPQt7OaKUzobNceO9fq20idvUpaHRjoOQ688z/w
9FTRlkzBuxt7v/QGJImj9cE33x4Rzom1BxfgTzd4M6/01bsHhbZBE8QjlzY6MRNh
Y2ZxNYr78p3ytYgWWAZebXFaPDhX0owlk5rbyjKYr9jibkujuSYTCQk6PVPcKthC
rlOUiYe8w7G9YqV1CUvmjzl+S39wmuQKLwZKVwootgcAf9M1a4Pw2ziTjfbmMbND
ulOF3BrWVim1X4q0+hnPDXQx0siQVuDp3HmRRBBos8aaClQ0pIAMhujD2p8SbCkR
BF4kbHMf7p6i5nFmrt2iB5pQuORhnSA3puWwHj4CB72xg+R2oPmvMaI+ocGmAOvs
CalL77BTbOBcDoMEllliIva44//sSRG3cV3wmDSNAgMBAAGjUzBRMB0GA1UdDgQW
BBS4Im3zWcMPLEKmh3tZQ9+/eYP9ejAfBgNVHSMEGDAWgBS4Im3zWcMPLEKmh3tZ
Q9+/eYP9ejAPBgNVHRMBAf8EBTADAQH/MA0GCSqGSIb3DQEBCwUAA4ICAQBZ8UEP
Qx7ilgPQsCOutnaIsjnAOeW+MEonaFuN/kHsXjiojBBt6VhOcroIjHaS1OCQE4HF
fRJcv2cfbvFVNzUEFTQwjiLQmGgqy7KMkZ5RLDSS63nBwHcEwOBtYsWK2EPTbU9H
OEa77Zbh8E8DYuXBLo5R9Y7XWbGxloji3ihKsTZsOTVNVjiVlle6hdpGZF6Ld4ZX
Zpr2WVOel+vCKPcDOYKoorNPbyx2pOsmg+v6QDvDYDMjYh39YBG7HT+k7B/13cJX
iWwwTqA9+9wHzBak0yiF19K4kN7KvPZDVb92YGZIcKTAsmsIjkbnblz09Ah85knW
UJE5Pq+g/0AwE0TqI33Kk+Pr803K73ejzKIdU0YPWq42TjMoECSK47SwaFWPQdqM
cytzN65unI9Osa5BfqPCRbDgYyvl4e17p7CoiwcaI+BtQxll8NL6WBDLILC3XteO
5FOE31NGhhrd4uykUiGPq/7dyiz3VJIzvGb9cQW45QcEe9r3KoMGZqMwdNfky2s6
jQKGTagEuXzANQwrwOzKp9ncUFhPF/W5Y2EpGAP0qTj4trkeTk3krBrY9rIfi6cu
7MTcqPkoICmpwMxKIuRzRIds+YYLXUF0N4AgYXDD87fI7V/8AvBwaLpLHuH8c2L9
AgfjZTQt3FldirSBxSiysc5gKLqU60OUpKCk1g==
-----END CERTIFICATE-----
---
Server certificate
subject=C=US, ST=California, L=Brea, O=New Dream Network LLC dba Dreamhost, OU=System Engineering, CN=sni.dreamhost.com, emailAddress=ssl@dreamhost.com
issuer=C=US, ST=California, L=Brea, O=New Dream Network LLC dba Dreamhost, OU=System Engineering, CN=sni.dreamhost.com, emailAddress=ssl@dreamhost.com
---
No client certificate CA names sent
Peer signing digest: SHA256
Peer signature type: RSA-PSS
Server Temp Key: X25519, 253 bits
---
SSL handshake has read 2424 bytes and written 541 bytes
Verification error: self-signed certificate
---
New, TLSv1.3, Cipher is TLS_AES_256_GCM_SHA384
Server public key is 4096 bit
This TLS version forbids renegotiation.
Compression: NONE
Expansion: NONE
No ALPN negotiated
Early data was not sent
Verify return code: 18 (self-signed certificate)
---

---------- READABLE FORMAT ----------
Certificate:
    Data:
        Version: 3 (0x2)
        Serial Number: 50159747054 (0xbadc0ffee)
        Signature Algorithm: sha256WithRSAEncryption
        Issuer: C=US, ST=California, L=Brea, O=New Dream Network LLC dba Dreamhost, OU=System Engineering, CN=sni.dreamhost.com, emailAddress=ssl@dreamhost.com
        Validity
            Not Before: Apr  3 19:15:26 2023 GMT
            Not After : Mar 31 19:15:26 2033 GMT
        Subject: C=US, ST=California, L=Brea, O=New Dream Network LLC dba Dreamhost, OU=System Engineering, CN=sni.dreamhost.com, emailAddress=ssl@dreamhost.com
        Subject Public Key Info:
            Public Key Algorithm: rsaEncryption
                Public-Key: (4096 bit)
                Modulus:
                    00:bb:2a:2e:21:32:f5:8c:5a:41:99:d1:7b:5f:b5:
                    bb:54:c0:05:52:45:96:14:a4:65:7e:67:f7:e3:f1:
                    81:c2:55:40:c3:70:1d:a9:7a:84:df:45:52:f0:b8:
                    ed:39:ff:13:19:8b:5b:f0:ec:ac:69:2a:db:08:1e:
                    13:e5:49:9e:d9:26:8e:86:f5:28:ea:67:b3:e2:70:
                    27:01:f3:99:1b:d5:65:7e:16:45:1c:d2:da:a7:4a:
                    0c:5c:bf:04:a4:35:8a:3b:7f:00:15:51:76:21:23:
                    57:b7:bd:7c:65:b2:3f:26:7c:f1:5c:d6:b5:70:5c:
                    ec:1e:d4:77:db:05:ec:78:6e:6e:2e:3f:53:8a:14:
                    e4:7a:d1:d0:3d:8a:a3:cf:97:34:f0:54:a4:4e:23:
                    0c:af:91:7f:34:03:5c:a2:a3:4c:7e:2f:4f:5e:7e:
                    7b:a6:67:d5:0e:4f:b2:06:87:5f:e3:da:c1:d3:db:
                    6f:a9:e9:c1:9b:6c:30:dc:e0:7d:39:af:01:46:0e:
                    16:39:e7:1d:21:a5:02:eb:21:2e:51:83:5c:cb:52:
                    c1:b7:7c:82:13:d0:b7:b3:9a:29:4c:e8:6c:d7:1e:
                    3b:d7:ea:db:48:9d:bd:4a:5a:1d:18:e8:39:0e:bc:
                    f3:3f:f0:f4:54:d1:96:4c:c1:bb:1b:7b:bf:f4:06:
                    24:89:a3:f5:c1:37:df:1e:11:ce:89:b5:07:17:e0:
                    4f:37:78:33:af:f4:d5:bb:07:85:b6:41:13:c4:23:
                    97:36:3a:31:13:61:63:66:71:35:8a:fb:f2:9d:f2:
                    b5:88:16:58:06:5e:6d:71:5a:3c:38:57:d2:8c:25:
                    93:9a:db:ca:32:98:af:d8:e2:6e:4b:a3:b9:26:13:
                    09:09:3a:3d:53:dc:2a:d8:42:ae:53:94:89:87:bc:
                    c3:b1:bd:62:a5:75:09:4b:e6:8f:39:7e:4b:7f:70:
                    9a:e4:0a:2f:06:4a:57:0a:28:b6:07:00:7f:d3:35:
                    6b:83:f0:db:38:93:8d:f6:e6:31:b3:43:ba:53:85:
                    dc:1a:d6:56:29:b5:5f:8a:b4:fa:19:cf:0d:74:31:
                    d2:c8:90:56:e0:e9:dc:79:91:44:10:68:b3:c6:9a:
                    0a:54:34:a4:80:0c:86:e8:c3:da:9f:12:6c:29:11:
                    04:5e:24:6c:73:1f:ee:9e:a2:e6:71:66:ae:dd:a2:
                    07:9a:50:b8:e4:61:9d:20:37:a6:e5:b0:1e:3e:02:
                    07:bd:b1:83:e4:76:a0:f9:af:31:a2:3e:a1:c1:a6:
                    00:eb:ec:09:a9:4b:ef:b0:53:6c:e0:5c:0e:83:04:
                    96:59:62:22:f6:b8:e3:ff:ec:49:11:b7:71:5d:f0:
                    98:34:8d
                Exponent: 65537 (0x10001)
        X509v3 extensions:
            X509v3 Subject Key Identifier: 
                B8:22:6D:F3:59:C3:0F:2C:42:A6:87:7B:59:43:DF:BF:79:83:FD:7A
            X509v3 Authority Key Identifier: 
                B8:22:6D:F3:59:C3:0F:2C:42:A6:87:7B:59:43:DF:BF:79:83:FD:7A
            X509v3 Basic Constraints: critical
                CA:TRUE
    Signature Algorithm: sha256WithRSAEncryption
    Signature Value:
        59:f1:41:0f:43:1e:e2:96:03:d0:b0:23:ae:b6:76:88:b2:39:
        c0:39:e5:be:30:4a:27:68:5b:8d:fe:41:ec:5e:38:a8:8c:10:
        6d:e9:58:4e:72:ba:08:8c:76:92:d4:e0:90:13:81:c5:7d:12:
        5c:bf:67:1f:6e:f1:55:37:35:04:15:34:30:8e:22:d0:98:68:
        2a:cb:b2:8c:91:9e:51:2c:34:92:eb:79:c1:c0:77:04:c0:e0:
        6d:62:c5:8a:d8:43:d3:6d:4f:47:38:46:bb:ed:96:e1:f0:4f:
        03:62:e5:c1:2e:8e:51:f5:8e:d7:59:b1:b1:96:88:e2:de:28:
        4a:b1:36:6c:39:35:4d:56:38:95:96:57:ba:85:da:46:64:5e:
        8b:77:86:57:66:9a:f6:59:53:9e:97:eb:c2:28:f7:03:39:82:
        a8:a2:b3:4f:6f:2c:76:a4:eb:26:83:eb:fa:40:3b:c3:60:33:
        23:62:1d:fd:60:11:bb:1d:3f:a4:ec:1f:f5:dd:c2:57:89:6c:
        30:4e:a0:3d:fb:dc:07:cc:16:a4:d3:28:85:d7:d2:b8:90:de:
        ca:bc:f6:43:55:bf:76:60:66:48:70:a4:c0:b2:6b:08:8e:46:
        e7:6e:5c:f4:f4:08:7c:e6:49:d6:50:91:39:3e:af:a0:ff:40:
        30:13:44:ea:23:7d:ca:93:e3:eb:f3:4d:ca:ef:77:a3:cc:a2:
        1d:53:46:0f:5a:ae:36:4e:33:28:10:24:8a:e3:b4:b0:68:55:
        8f:41:da:8c:73:2b:73:37:ae:6e:9c:8f:4e:b1:ae:41:7e:a3:
        c2:45:b0:e0:63:2b:e5:e1:ed:7b:a7:b0:a8:8b:07:1a:23:e0:
        6d:43:19:65:f0:d2:fa:58:10:cb:20:b0:b7:5e:d7:8e:e4:53:
        84:df:53:46:86:1a:dd:e2:ec:a4:52:21:8f:ab:fe:dd:ca:2c:
        f7:54:92:33:bc:66:fd:71:05:b8:e5:07:04:7b:da:f7:2a:83:
        06:66:a3:30:74:d7:e4:cb:6b:3a:8d:02:86:4d:a8:04:b9:7c:
        c0:35:0c:2b:c0:ec:ca:a7:d9:dc:50:58:4f:17:f5:b9:63:61:
        29:18:03:f4:a9:38:f8:b6:b9:1e:4e:4d:e4:ac:1a:d8:f6:b2:
        1f:8b:a7:2e:ec:c4:dc:a8:f9:28:20:29:a9:c0:cc:4a:22:e4:
        73:44:87:6c:f9:86:0b:5d:41:74:37:80:20:61:70:c3:f3:b7:
        c8:ed:5f:fc:02:f0:70:68:ba:4b:1e:e1:fc:73:62:fd:02:07:
        e3:65:34:2d:dc:59:5d:8a:b4:81:c5:28:b2:b1:ce:60:28:ba:
        94:eb:43:94:a4:a0:a4:d6
