---------- ORIGINAL FORMAT ----------
CONNECTED(00000003)
---
Certificate chain
 0 s:C=US, ST=WA, L=Redmond, O=Microsoft Corporation, CN=*.azureedge.net
   i:C=US, O=Microsoft Corporation, CN=Microsoft Azure RSA TLS Issuing CA 04
   a:PKEY: rsaEncryption, 2048 (bit); sigalg: RSA-SHA384
   v:NotBefore: Sep 19 04:22:23 2024 GMT; NotAfter: Sep 14 04:22:23 2025 GMT
-----BEGIN CERTIFICATE-----
MIIIzDCCBrSgAwIBAgITMwC91q3Jc/r1VmW3TAAAAL3WrTANBgkqhkiG9w0BAQwF
ADBdMQswCQYDVQQGEwJVUzEeMBwGA1UEChMVTWljcm9zb2Z0IENvcnBvcmF0aW9u
MS4wLAYDVQQDEyVNaWNyb3NvZnQgQXp1cmUgUlNBIFRMUyBJc3N1aW5nIENBIDA0
MB4XDTI0MDkxOTA0MjIyM1oXDTI1MDkxNDA0MjIyM1owZjELMAkGA1UEBhMCVVMx
CzAJBgNVBAgTAldBMRAwDgYDVQQHEwdSZWRtb25kMR4wHAYDVQQKExVNaWNyb3Nv
ZnQgQ29ycG9yYXRpb24xGDAWBgNVBAMMDyouYXp1cmVlZGdlLm5ldDCCASIwDQYJ
KoZIhvcNAQEBBQADggEPADCCAQoCggEBALuMAeSmx/p8AJHZlbLpbp5RI6xhScA5
EqMxmCZv8Kuel4UVNOHgc2sAY+MZvmH5ao+BHMvr7HJKKXtPwLYJjntjtRhqaSjK
dcIGKopK2VUAovS3Hxy9p1BLpIvKlpJKA1jIavRky5pOWR7kR/39IGh4Ygm4P6iK
JKWOqQqisbah1q73XuFJsASKMyqzJU2mGuEgquuOrOGDkBDT8slCn7qyp5zBRlei
7bpkiA5JlZlzKpYuy6XsaKODRw5Fp8FfDDBcMLDeuNph0Da/Gw+Vln4ZGefEAZpT
lSDV1fmPCDW5YogFSG3SNj8bG+vw7cINvbUrm9NV6+iuvqlPexi5McECAwEAAaOC
BHowggR2MIIBfgYKKwYBBAHWeQIEAgSCAW4EggFqAWgAdgDd3Mo0ldfhFgXnlTL6
x5/4PRxQ39sAOhQSdgosrLvIKgAAAZIIjYs8AAAEAwBHMEUCIHZpusTKInU/PgCC
kgL3rYrW0gQaCIN6A64eVDFyOfcOAiEAgRQKlI/oX06QAEQYfT93NQ89XBmSyWyc
bOo+YkgHS64AdgB9WR4S4XgqexxhZ3xe/fjQh1wUoE6VnrkDL9kOjC55uAAAAZII
jYrpAAAEAwBHMEUCIG2jhdy7z1vdgrbsu1g1LMUakCyvnTrbxMFviMxCFh8AAiEA
3PXB4lgn2RsQBkClJ5f7EGiV9RfFuVAMM2U9mlRC3dwAdgAaBP9J0FQdQK/2oMO/
8djEZy9O7O4jQGiYaxdALtyJfQAAAZIIjYtkAAAEAwBHMEUCIQDx5iLizHAL0Rj4
HykJLxgq5Eb+oARbub9wq8qUbyqQrgIgYX3FCuv48XFwpNyaacQmv8YsD6uRMW1K
s1N4uqXyg6EwJwYJKwYBBAGCNxUKBBowGDAKBggrBgEFBQcDAjAKBggrBgEFBQcD
ATA8BgkrBgEEAYI3FQcELzAtBiUrBgEEAYI3FQiHvdcbgefrRoKBnS6O0AyH8Nod
XYKE5WmC86c+AgFkAgEmMIG0BggrBgEFBQcBAQSBpzCBpDBzBggrBgEFBQcwAoZn
aHR0cDovL3d3dy5taWNyb3NvZnQuY29tL3BraW9wcy9jZXJ0cy9NaWNyb3NvZnQl
MjBBenVyZSUyMFJTQSUyMFRMUyUyMElzc3VpbmclMjBDQSUyMDA0JTIwLSUyMHhz
aWduLmNydDAtBggrBgEFBQcwAYYhaHR0cDovL29uZW9jc3AubWljcm9zb2Z0LmNv
bS9vY3NwMB0GA1UdDgQWBBSCvWtPZKidBodJBL6nmRySwF7aXTAOBgNVHQ8BAf8E
BAMCBaAwgYIGA1UdEQR7MHmCDyouYXp1cmVlZGdlLm5ldIIbKi5tZWRpYS5taWNy
b3NvZnRzdHJlYW0uY29tgiIqLm9yaWdpbi5tZWRpYXNlcnZpY2VzLndpbmRvd3Mu
bmV0giUqLnN0cmVhbWluZy5tZWRpYXNlcnZpY2VzLndpbmRvd3MubmV0MAwGA1Ud
EwEB/wQCMAAwagYDVR0fBGMwYTBfoF2gW4ZZaHR0cDovL3d3dy5taWNyb3NvZnQu
Y29tL3BraW9wcy9jcmwvTWljcm9zb2Z0JTIwQXp1cmUlMjBSU0ElMjBUTFMlMjBJ
c3N1aW5nJTIwQ0ElMjAwNC5jcmwwZgYDVR0gBF8wXTBRBgwrBgEEAYI3TIN9AQEw
QTA/BggrBgEFBQcCARYzaHR0cDovL3d3dy5taWNyb3NvZnQuY29tL3BraW9wcy9E
b2NzL1JlcG9zaXRvcnkuaHRtMAgGBmeBDAECAjAfBgNVHSMEGDAWgBQ7cNFT6XYl
nWCoymYPxpuub1QWajAdBgNVHSUEFjAUBggrBgEFBQcDAgYIKwYBBQUHAwEwDQYJ
KoZIhvcNAQEMBQADggIBABwxS4WSyG6pTQWTkvkG8lzrEbsMAZJP07w35I4b8s/q
Vxym7GnHoTCWBudHVCh8mwtZMqv2GzRDlwHJomZGSDLgfPKt1cBzg6PZCWfZog2p
I1Ig27zCLhkat7FW1vgUxXJwh4ewNi+9I1XQYUh+X6GbcHpdJztVleqWu9u6GQgD
6CVKTdZYK4Nz/E3UDqLGytD3HNKEQP5l3/KzQ4lsRZ4Se41CwpQvggiAp1jpunec
OgcsL7aQ/6ew+X4pN3gvml2FnPoVUJXLduMU6ZUoOwPXwFx5laQpcf2/ZocUH7Nd
bzgv5n0bvv2mXMykxidv00Lb/eLtvZOwU9hNr0+lgZfqDnK46gA+BdcRcE+GcZJ+
g3mNazNpswmOcWIfRl81BSk7T78kguwQVAKJaVVbmLZC7k9DzDiDkiFlscQzc/JB
iVE2nNECnwez2wXZwqUjvF3e9onB14y7GLizWSG9mtxdvrRC/9Vij3J3xHfYxVjI
GgjaF+YKeNBWqOooLbPTKJ8yVoKLbdZRPvAXy7ZKjPEnPFBKnRGQe+sJRSdERcZQ
ffeju5i2qYM+YaLc1q1XMZ0iv2qgeEg+hr46bAKRxNAr1DLSR7nKJY87/1DQiQOS
150W7gpogx6FaPJlh6993KRq5Wm6UjWkLdsfsi8dMadqhIPgPkSSWfYaOjucOtfR
-----END CERTIFICATE-----
 1 s:C=US, O=Microsoft Corporation, CN=Microsoft Azure RSA TLS Issuing CA 04
   i:C=US, O=DigiCert Inc, OU=www.digicert.com, CN=DigiCert Global Root G2
   a:PKEY: rsaEncryption, 4096 (bit); sigalg: RSA-SHA384
   v:NotBefore: Jun  8 00:00:00 2023 GMT; NotAfter: Aug 25 23:59:59 2026 GMT
-----BEGIN CERTIFICATE-----
MIIFrDCCBJSgAwIBAgIQCfluwpVVXyR0nq8eXc7UnTANBgkqhkiG9w0BAQwFADBh
MQswCQYDVQQGEwJVUzEVMBMGA1UEChMMRGlnaUNlcnQgSW5jMRkwFwYDVQQLExB3
d3cuZGlnaWNlcnQuY29tMSAwHgYDVQQDExdEaWdpQ2VydCBHbG9iYWwgUm9vdCBH
MjAeFw0yMzA2MDgwMDAwMDBaFw0yNjA4MjUyMzU5NTlaMF0xCzAJBgNVBAYTAlVT
MR4wHAYDVQQKExVNaWNyb3NvZnQgQ29ycG9yYXRpb24xLjAsBgNVBAMTJU1pY3Jv
c29mdCBBenVyZSBSU0EgVExTIElzc3VpbmcgQ0EgMDQwggIiMA0GCSqGSIb3DQEB
AQUAA4ICDwAwggIKAoICAQDBeUy13eRZ/QC5bN7/IOGxodny7Xm2BFc88d3cca3y
HyyVx1Y60+afY6DAo/2Ls1uzAfbDfMzAVWJazPH4tckaItDv//htEbbNJnAGvZPB
4VqNviwDEmlAWT/MTAmzXfTgWXuUNgRlzZbjoFaPm+t6iJ6HdvDpWQAJbsBUZCga
t257tM28JnAHUTWdiDBn+2z6EGh2DA6BCx04zHDKVSegLY8+5P80Lqze0d6i3T2J
J7rfxCmxUXfCGOv9iQIUZfhv4vCb8hsm/JdNUMiomJhSPa0bi3rda/swuJHCH//d
wz2AGzZRRGdj7Kna4t6ToxK17lAF3Q6Qp368C9cE6JLMj+3UbY3umWCPRA5/Dms4
/wl3GvDEw7HpyKsvRNPpjDZyiFzZGC2HZmGMsrZMT3hxmyQwmz1O3eGYdO5EIq1S
W/vT1yShZTSusqmICQo5gWWRZTwCENekSbVX9qRr77o0pjKtuBMZTGQTixwpT/rg
Ul7Mr4M2nqK55Kovy/kUN1znfPdW/Fj9iCuvPKwKFdyt2RVgxJDvgIF/bNoRkRxh
wVB6qRgs4EiTrNbRoZAHEFF5wRBf9gWn9HeoI66VtdMZvJRH+0/FDWB4/zwxS16n
nADJaVPXh6JHJFYs9p0wZmvct3GNdWrOLRAG2yzbfFZS8fJcX1PYxXXo4By16yGW
hQIDAQABo4IBYjCCAV4wEgYDVR0TAQH/BAgwBgEB/wIBADAdBgNVHQ4EFgQUO3DR
U+l2JZ1gqMpmD8abrm9UFmowHwYDVR0jBBgwFoAUTiJUIBiV5uNu5g/6+rkS7QYX
jzkwDgYDVR0PAQH/BAQDAgGGMB0GA1UdJQQWMBQGCCsGAQUFBwMBBggrBgEFBQcD
AjB2BggrBgEFBQcBAQRqMGgwJAYIKwYBBQUHMAGGGGh0dHA6Ly9vY3NwLmRpZ2lj
ZXJ0LmNvbTBABggrBgEFBQcwAoY0aHR0cDovL2NhY2VydHMuZGlnaWNlcnQuY29t
L0RpZ2lDZXJ0R2xvYmFsUm9vdEcyLmNydDBCBgNVHR8EOzA5MDegNaAzhjFodHRw
Oi8vY3JsMy5kaWdpY2VydC5jb20vRGlnaUNlcnRHbG9iYWxSb290RzIuY3JsMB0G
A1UdIAQWMBQwCAYGZ4EMAQIBMAgGBmeBDAECAjANBgkqhkiG9w0BAQwFAAOCAQEA
o9sJvBNLQSJ1e7VaG3cSZHBz6zjS70A1gVO1pqsmX34BWDPz1TAlOyJiLlA+eUF4
B2OWHd3F//dJJ/3TaCFunjBhZudv3busl7flz42K/BG/eOdlg0kiUf07PCYY5/FK
YTIch51j1moFlBqbglwkdNIVae2tOu0OdX2JiA+bprYcGxa7eayLetvPiA77ynTc
UNMKOqYB41FZHOXe5IXDI5t2RsDM9dMEZv4+cOb9G9qXcgDar1AzPHEt/39335zC
HofQ0QuItCDCDzahWZci9Nn9hb/SvAtPWHZLkLBG6I0iwGxvMwcTTc9Jnb4Flysr
mQlwKsS2MphOoI23Qq3cSA==
-----END CERTIFICATE-----
---
Server certificate
subject=C=US, ST=WA, L=Redmond, O=Microsoft Corporation, CN=*.azureedge.net
issuer=C=US, O=Microsoft Corporation, CN=Microsoft Azure RSA TLS Issuing CA 04
---
No client certificate CA names sent
Peer signing digest: SHA256
Peer signature type: RSA-PSS
Server Temp Key: ECDH, secp521r1, 521 bits
---
SSL handshake has read 4401 bytes and written 1105 bytes
Verification: OK
---
New, TLSv1.3, Cipher is TLS_AES_256_GCM_SHA384
Server public key is 2048 bit
This TLS version forbids renegotiation.
Compression: NONE
Expansion: NONE
No ALPN negotiated
Early data was not sent
Verify return code: 0 (ok)
---

---------- READABLE FORMAT ----------
Certificate:
    Data:
        Version: 3 (0x2)
        Serial Number:
            33:00:bd:d6:ad:c9:73:fa:f5:56:65:b7:4c:00:00:00:bd:d6:ad
        Signature Algorithm: sha384WithRSAEncryption
        Issuer: C=US, O=Microsoft Corporation, CN=Microsoft Azure RSA TLS Issuing CA 04
        Validity
            Not Before: Sep 19 04:22:23 2024 GMT
            Not After : Sep 14 04:22:23 2025 GMT
        Subject: C=US, ST=WA, L=Redmond, O=Microsoft Corporation, CN=*.azureedge.net
        Subject Public Key Info:
            Public Key Algorithm: rsaEncryption
                Public-Key: (2048 bit)
                Modulus:
                    00:bb:8c:01:e4:a6:c7:fa:7c:00:91:d9:95:b2:e9:
                    6e:9e:51:23:ac:61:49:c0:39:12:a3:31:98:26:6f:
                    f0:ab:9e:97:85:15:34:e1:e0:73:6b:00:63:e3:19:
                    be:61:f9:6a:8f:81:1c:cb:eb:ec:72:4a:29:7b:4f:
                    c0:b6:09:8e:7b:63:b5:18:6a:69:28:ca:75:c2:06:
                    2a:8a:4a:d9:55:00:a2:f4:b7:1f:1c:bd:a7:50:4b:
                    a4:8b:ca:96:92:4a:03:58:c8:6a:f4:64:cb:9a:4e:
                    59:1e:e4:47:fd:fd:20:68:78:62:09:b8:3f:a8:8a:
                    24:a5:8e:a9:0a:a2:b1:b6:a1:d6:ae:f7:5e:e1:49:
                    b0:04:8a:33:2a:b3:25:4d:a6:1a:e1:20:aa:eb:8e:
                    ac:e1:83:90:10:d3:f2:c9:42:9f:ba:b2:a7:9c:c1:
                    46:57:a2:ed:ba:64:88:0e:49:95:99:73:2a:96:2e:
                    cb:a5:ec:68:a3:83:47:0e:45:a7:c1:5f:0c:30:5c:
                    30:b0:de:b8:da:61:d0:36:bf:1b:0f:95:96:7e:19:
                    19:e7:c4:01:9a:53:95:20:d5:d5:f9:8f:08:35:b9:
                    62:88:05:48:6d:d2:36:3f:1b:1b:eb:f0:ed:c2:0d:
                    bd:b5:2b:9b:d3:55:eb:e8:ae:be:a9:4f:7b:18:b9:
                    31:c1
                Exponent: 65537 (0x10001)
        X509v3 extensions:
            CT Precertificate SCTs: 
                Signed Certificate Timestamp:
                    Version   : v1 (0x0)
                    Log ID    : DD:DC:CA:34:95:D7:E1:16:05:E7:95:32:FA:C7:9F:F8:
                                3D:1C:50:DF:DB:00:3A:14:12:76:0A:2C:AC:BB:C8:2A
                    Timestamp : Sep 19 04:32:26.940 2024 GMT
                    Extensions: none
                    Signature : ecdsa-with-SHA256
                                30:45:02:20:76:69:BA:C4:CA:22:75:3F:3E:00:82:92:
                                02:F7:AD:8A:D6:D2:04:1A:08:83:7A:03:AE:1E:54:31:
                                72:39:F7:0E:02:21:00:81:14:0A:94:8F:E8:5F:4E:90:
                                00:44:18:7D:3F:77:35:0F:3D:5C:19:92:C9:6C:9C:6C:
                                EA:3E:62:48:07:4B:AE
                Signed Certificate Timestamp:
                    Version   : v1 (0x0)
                    Log ID    : 7D:59:1E:12:E1:78:2A:7B:1C:61:67:7C:5E:FD:F8:D0:
                                87:5C:14:A0:4E:95:9E:B9:03:2F:D9:0E:8C:2E:79:B8
                    Timestamp : Sep 19 04:32:26.857 2024 GMT
                    Extensions: none
                    Signature : ecdsa-with-SHA256
                                30:45:02:20:6D:A3:85:DC:BB:CF:5B:DD:82:B6:EC:BB:
                                58:35:2C:C5:1A:90:2C:AF:9D:3A:DB:C4:C1:6F:88:CC:
                                42:16:1F:00:02:21:00:DC:F5:C1:E2:58:27:D9:1B:10:
                                06:40:A5:27:97:FB:10:68:95:F5:17:C5:B9:50:0C:33:
                                65:3D:9A:54:42:DD:DC
                Signed Certificate Timestamp:
                    Version   : v1 (0x0)
                    Log ID    : 1A:04:FF:49:D0:54:1D:40:AF:F6:A0:C3:BF:F1:D8:C4:
                                67:2F:4E:EC:EE:23:40:68:98:6B:17:40:2E:DC:89:7D
                    Timestamp : Sep 19 04:32:26.980 2024 GMT
                    Extensions: none
                    Signature : ecdsa-with-SHA256
                                30:45:02:21:00:F1:E6:22:E2:CC:70:0B:D1:18:F8:1F:
                                29:09:2F:18:2A:E4:46:FE:A0:04:5B:B9:BF:70:AB:CA:
                                94:6F:2A:90:AE:02:20:61:7D:C5:0A:EB:F8:F1:71:70:
                                A4:DC:9A:69:C4:26:BF:C6:2C:0F:AB:91:31:6D:4A:B3:
                                53:78:BA:A5:F2:83:A1
            Microsoft Application Policies Extension: 
                0.0
..+.......0
..+.......
            Microsoft certificate template: 
                0-.%+.....7.........F...........]...i...>..d..&
            Authority Information Access: 
                CA Issuers - URI:http://www.microsoft.com/pkiops/certs/Microsoft%20Azure%20RSA%20TLS%20Issuing%20CA%2004%20-%20xsign.crt
                OCSP - URI:http://oneocsp.microsoft.com/ocsp
            X509v3 Subject Key Identifier: 
                82:BD:6B:4F:64:A8:9D:06:87:49:04:BE:A7:99:1C:92:C0:5E:DA:5D
            X509v3 Key Usage: critical
                Digital Signature, Key Encipherment
            X509v3 Subject Alternative Name: 
                DNS:*.azureedge.net, DNS:*.media.microsoftstream.com, DNS:*.origin.mediaservices.windows.net, DNS:*.streaming.mediaservices.windows.net
            X509v3 Basic Constraints: critical
                CA:FALSE
            X509v3 CRL Distribution Points: 
                Full Name:
                  URI:http://www.microsoft.com/pkiops/crl/Microsoft%20Azure%20RSA%20TLS%20Issuing%20CA%2004.crl
            X509v3 Certificate Policies: 
                Policy: 1.3.6.1.4.1.311.76.509.1.1
                  CPS: http://www.microsoft.com/pkiops/Docs/Repository.htm
                Policy: 2.23.140.1.2.2
            X509v3 Authority Key Identifier: 
                3B:70:D1:53:E9:76:25:9D:60:A8:CA:66:0F:C6:9B:AE:6F:54:16:6A
            X509v3 Extended Key Usage: 
                TLS Web Client Authentication, TLS Web Server Authentication
    Signature Algorithm: sha384WithRSAEncryption
    Signature Value:
        1c:31:4b:85:92:c8:6e:a9:4d:05:93:92:f9:06:f2:5c:eb:11:
        bb:0c:01:92:4f:d3:bc:37:e4:8e:1b:f2:cf:ea:57:1c:a6:ec:
        69:c7:a1:30:96:06:e7:47:54:28:7c:9b:0b:59:32:ab:f6:1b:
        34:43:97:01:c9:a2:66:46:48:32:e0:7c:f2:ad:d5:c0:73:83:
        a3:d9:09:67:d9:a2:0d:a9:23:52:20:db:bc:c2:2e:19:1a:b7:
        b1:56:d6:f8:14:c5:72:70:87:87:b0:36:2f:bd:23:55:d0:61:
        48:7e:5f:a1:9b:70:7a:5d:27:3b:55:95:ea:96:bb:db:ba:19:
        08:03:e8:25:4a:4d:d6:58:2b:83:73:fc:4d:d4:0e:a2:c6:ca:
        d0:f7:1c:d2:84:40:fe:65:df:f2:b3:43:89:6c:45:9e:12:7b:
        8d:42:c2:94:2f:82:08:80:a7:58:e9:ba:77:9c:3a:07:2c:2f:
        b6:90:ff:a7:b0:f9:7e:29:37:78:2f:9a:5d:85:9c:fa:15:50:
        95:cb:76:e3:14:e9:95:28:3b:03:d7:c0:5c:79:95:a4:29:71:
        fd:bf:66:87:14:1f:b3:5d:6f:38:2f:e6:7d:1b:be:fd:a6:5c:
        cc:a4:c6:27:6f:d3:42:db:fd:e2:ed:bd:93:b0:53:d8:4d:af:
        4f:a5:81:97:ea:0e:72:b8:ea:00:3e:05:d7:11:70:4f:86:71:
        92:7e:83:79:8d:6b:33:69:b3:09:8e:71:62:1f:46:5f:35:05:
        29:3b:4f:bf:24:82:ec:10:54:02:89:69:55:5b:98:b6:42:ee:
        4f:43:cc:38:83:92:21:65:b1:c4:33:73:f2:41:89:51:36:9c:
        d1:02:9f:07:b3:db:05:d9:c2:a5:23:bc:5d:de:f6:89:c1:d7:
        8c:bb:18:b8:b3:59:21:bd:9a:dc:5d:be:b4:42:ff:d5:62:8f:
        72:77:c4:77:d8:c5:58:c8:1a:08:da:17:e6:0a:78:d0:56:a8:
        ea:28:2d:b3:d3:28:9f:32:56:82:8b:6d:d6:51:3e:f0:17:cb:
        b6:4a:8c:f1:27:3c:50:4a:9d:11:90:7b:eb:09:45:27:44:45:
        c6:50:7d:f7:a3:bb:98:b6:a9:83:3e:61:a2:dc:d6:ad:57:31:
        9d:22:bf:6a:a0:78:48:3e:86:be:3a:6c:02:91:c4:d0:2b:d4:
        32:d2:47:b9:ca:25:8f:3b:ff:50:d0:89:03:92:d7:9d:16:ee:
        0a:68:83:1e:85:68:f2:65:87:af:7d:dc:a4:6a:e5:69:ba:52:
        35:a4:2d:db:1f:b2:2f:1d:31:a7:6a:84:83:e0:3e:44:92:59:
        f6:1a:3a:3b:9c:3a:d7:d1
